target datalayout = "e-m:e-p270:32:32-p271:32:32-p272:64:64-i64:64-i128:128-f80:128-n8:16:32:64-S128"
target triple = "x86_64-pc-linux-gnu"

%struct.Vec_Int_t_ = type { i32, i32, ptr }
%struct.Vec_Ptr_t_ = type { i32, i32, ptr }
%struct.Abc_Ntk_t_ = type { i32, i32, ptr, ptr, ptr, ptr, ptr, ptr, ptr, ptr, ptr, ptr, ptr, [11 x i32], i32, i32, i32, i32, ptr, i32, ptr, ptr, i32, i32, i32, double, i32, %struct.Vec_Int_t_, ptr, ptr, ptr, ptr, ptr, float, i32, ptr, ptr, ptr, ptr, ptr, ptr, ptr, ptr, ptr, ptr, ptr, ptr, ptr, ptr, ptr, ptr, ptr, ptr, ptr, ptr, ptr, ptr }

@.str.2 = private unnamed_addr constant [2 x i8] c"a\00", align 1
@.str.3 = private unnamed_addr constant [3 x i8] c"( \00", align 1
@.str.5 = private unnamed_addr constant [3 x i8] c"%s\00", align 1
@.str.6 = private unnamed_addr constant [5 x i8] c" || \00", align 1
@.str.7 = private unnamed_addr constant [4 x i8] c" )\0A\00", align 1
@.str.8 = private unnamed_addr constant [13 x i8] c"INT[%d] : ( \00", align 1
@.str.9 = private unnamed_addr constant [15 x i8] c"csLevel1Stabil\00", align 1

; Function Attrs: inlinehint nounwind uwtable
define internal ptr @Abc_NtkPo(ptr noundef %0, i32 noundef %1) #3 {
  %3 = alloca ptr, align 8
  %4 = alloca i32, align 4
  store ptr %0, ptr %3, align 8, !tbaa !86
  store i32 %1, ptr %4, align 4, !tbaa !22
  %5 = load ptr, ptr %3, align 8, !tbaa !86
  %6 = getelementptr inbounds nuw %struct.Abc_Ntk_t_, ptr %5, i32 0, i32 7
  %7 = load ptr, ptr %6, align 8, !tbaa !93
  %8 = load i32, ptr %4, align 4, !tbaa !22
  %9 = call ptr @Vec_PtrEntry(ptr noundef %7, i32 noundef %8)
  ret ptr %9
}

; Function Attrs: inlinehint nounwind uwtable
define internal i32 @Vec_IntEntry(ptr noundef %0, i32 noundef %1) #3 {
  %3 = alloca ptr, align 8
  %4 = alloca i32, align 4
  store ptr %0, ptr %3, align 8, !tbaa !12
  store i32 %1, ptr %4, align 4, !tbaa !22
  %5 = load ptr, ptr %3, align 8, !tbaa !12
  %6 = getelementptr inbounds nuw %struct.Vec_Int_t_, ptr %5, i32 0, i32 2
  %7 = load ptr, ptr %6, align 8, !tbaa !13
  %8 = load i32, ptr %4, align 4, !tbaa !22
  %9 = sext i32 %8 to i64
  %10 = getelementptr inbounds i32, ptr %7, i64 %9
  %11 = load i32, ptr %10, align 4, !tbaa !22
  ret i32 %11
}

; Function Attrs: inlinehint nounwind uwtable
define internal i32 @Vec_IntSize(ptr noundef %0) #3 {
  %2 = alloca ptr, align 8
  store ptr %0, ptr %2, align 8, !tbaa !12
  %3 = load ptr, ptr %2, align 8, !tbaa !12
  %4 = getelementptr inbounds nuw %struct.Vec_Int_t_, ptr %3, i32 0, i32 1
  %5 = load i32, ptr %4, align 4, !tbaa !63
  ret i32 %5
}

; Function Attrs: inlinehint nounwind uwtable
define internal ptr @Vec_PtrEntry(ptr noundef %0, i32 noundef %1) #3 {
  %3 = alloca ptr, align 8
  %4 = alloca i32, align 4
  store ptr %0, ptr %3, align 8, !tbaa !43
  store i32 %1, ptr %4, align 4, !tbaa !22
  %5 = load ptr, ptr %3, align 8, !tbaa !43
  %6 = getelementptr inbounds nuw %struct.Vec_Ptr_t_, ptr %5, i32 0, i32 2
  %7 = load ptr, ptr %6, align 8, !tbaa !57
  %8 = load i32, ptr %4, align 4, !tbaa !22
  %9 = sext i32 %8 to i64
  %10 = getelementptr inbounds ptr, ptr %7, i64 %9
  %11 = load ptr, ptr %10, align 8, !tbaa !59
  ret ptr %11
}

; Function Attrs: inlinehint nounwind uwtable
define internal i32 @Vec_PtrSize(ptr noundef %0) #3 {
  %2 = alloca ptr, align 8
  store ptr %0, ptr %2, align 8, !tbaa !43
  %3 = load ptr, ptr %2, align 8, !tbaa !43
  %4 = getelementptr inbounds nuw %struct.Vec_Ptr_t_, ptr %3, i32 0, i32 1
  %5 = load i32, ptr %4, align 4, !tbaa !61
  ret i32 %5
}

; Function Attrs: nounwind uwtable
define void @printAllIntVectorsStabil(ptr noundef %0, ptr noundef %1, ptr noundef %2) #0 {
  %4 = alloca ptr, align 8
  %5 = alloca ptr, align 8
  %6 = alloca ptr, align 8
  %7 = alloca ptr, align 8
  %8 = alloca i32, align 4
  %9 = alloca i32, align 4
  %10 = alloca i32, align 4
  %11 = alloca ptr, align 8
  %12 = alloca ptr, align 8
  %13 = alloca ptr, align 8
  store ptr %0, ptr %4, align 8, !tbaa !43
  store ptr %1, ptr %5, align 8, !tbaa !86
  store ptr %2, ptr %6, align 8, !tbaa !88
  call void @llvm.lifetime.start.p0(i64 8, ptr %7) #9
  call void @llvm.lifetime.start.p0(i64 4, ptr %8) #9
  call void @llvm.lifetime.start.p0(i64 4, ptr %9) #9
  call void @llvm.lifetime.start.p0(i64 4, ptr %10) #9
  call void @llvm.lifetime.start.p0(i64 8, ptr %11) #9
  call void @llvm.lifetime.start.p0(i64 8, ptr %12) #9
  call void @llvm.lifetime.start.p0(i64 8, ptr %13) #9
  %14 = load ptr, ptr %6, align 8, !tbaa !88
  %15 = call noalias ptr @fopen(ptr noundef %14, ptr noundef @.str.2)
  store ptr %15, ptr %13, align 8, !tbaa !89
  store i32 0, ptr %8, align 4, !tbaa !22
  br label %16

16:                                               ; preds = %73, %3
  %17 = load i32, ptr %8, align 4, !tbaa !22
  %18 = load ptr, ptr %4, align 8, !tbaa !43
  %19 = call i32 @Vec_PtrSize(ptr noundef %18)
  %20 = icmp slt i32 %17, %19
  br i1 %20, label %21, label %25

21:                                               ; preds = %16
  %22 = load ptr, ptr %4, align 8, !tbaa !43
  %23 = load i32, ptr %8, align 4, !tbaa !22
  %24 = call ptr @Vec_PtrEntry(ptr noundef %22, i32 noundef %23)
  store ptr %24, ptr %7, align 8, !tbaa !12
  br label %25

25:                                               ; preds = %21, %16
  %26 = phi i1 [ false, %16 ], [ true, %21 ]
  br i1 %26, label %27, label %76

27:                                               ; preds = %25
  %28 = load i32, ptr %8, align 4, !tbaa !22
  %29 = call i32 (ptr, ...) @printf(ptr noundef @.str.8, i32 noundef %28)
  %30 = load ptr, ptr %13, align 8, !tbaa !89
  %31 = call i32 (ptr, ptr, ...) @fprintf(ptr noundef %30, ptr noundef @.str.3) #9
  store i32 0, ptr %9, align 4, !tbaa !22
  br label %32

32:                                               ; preds = %69, %27
  %33 = load i32, ptr %9, align 4, !tbaa !22
  %34 = load ptr, ptr %7, align 8, !tbaa !12
  %35 = call i32 @Vec_IntSize(ptr noundef %34)
  %36 = icmp slt i32 %33, %35
  br i1 %36, label %37, label %41

37:                                               ; preds = %32
  %38 = load ptr, ptr %7, align 8, !tbaa !12
  %39 = load i32, ptr %9, align 4, !tbaa !22
  %40 = call i32 @Vec_IntEntry(ptr noundef %38, i32 noundef %39)
  store i32 %40, ptr %10, align 4, !tbaa !22
  br label %41

41:                                               ; preds = %37, %32
  %42 = phi i1 [ false, %32 ], [ true, %37 ]
  br i1 %42, label %43, label %72

43:                                               ; preds = %41
  %44 = load ptr, ptr %5, align 8, !tbaa !86
  %45 = load i32, ptr %10, align 4, !tbaa !22
  %46 = call ptr @Abc_NtkPo(ptr noundef %44, i32 noundef %45)
  %47 = call ptr @Abc_ObjName(ptr noundef %46)
  store ptr %47, ptr %11, align 8, !tbaa !88
  %48 = load ptr, ptr %11, align 8, !tbaa !88
  %49 = call ptr @strstr(ptr noundef %48, ptr noundef @.str.9) #11
  store ptr %49, ptr %12, align 8, !tbaa !88
  %50 = load ptr, ptr %12, align 8, !tbaa !88
  %51 = call i32 (ptr, ...) @printf(ptr noundef @.str.5, ptr noundef %50)
  %52 = load ptr, ptr %13, align 8, !tbaa !89
  %53 = load ptr, ptr %12, align 8, !tbaa !88
  %54 = call i32 (ptr, ptr, ...) @fprintf(ptr noundef %52, ptr noundef @.str.5, ptr noundef %53) #9
  %55 = load i32, ptr %9, align 4, !tbaa !22
  %56 = load ptr, ptr %7, align 8, !tbaa !12
  %57 = call i32 @Vec_IntSize(ptr noundef %56)
  %58 = sub nsw i32 %57, 1
  %59 = icmp slt i32 %55, %58
  br i1 %59, label %60, label %64

60:                                               ; preds = %43
  %61 = call i32 (ptr, ...) @printf(ptr noundef @.str.6)
  %62 = load ptr, ptr %13, align 8, !tbaa !89
  %63 = call i32 (ptr, ptr, ...) @fprintf(ptr noundef %62, ptr noundef @.str.6) #9
  br label %68

64:                                               ; preds = %43
  %65 = call i32 (ptr, ...) @printf(ptr noundef @.str.7)
  %66 = load ptr, ptr %13, align 8, !tbaa !89
  %67 = call i32 (ptr, ptr, ...) @fprintf(ptr noundef %66, ptr noundef @.str.7) #9
  br label %68

68:                                               ; preds = %64, %60
  br label %69

69:                                               ; preds = %68
  %70 = load i32, ptr %9, align 4, !tbaa !22
  %71 = add nsw i32 %70, 1
  store i32 %71, ptr %9, align 4, !tbaa !22
  br label %32, !llvm.loop !103

72:                                               ; preds = %41
  br label %73

73:                                               ; preds = %72
  %74 = load i32, ptr %8, align 4, !tbaa !22
  %75 = add nsw i32 %74, 1
  store i32 %75, ptr %8, align 4, !tbaa !22
  br label %16, !llvm.loop !104

76:                                               ; preds = %25
  %77 = load ptr, ptr %13, align 8, !tbaa !89
  %78 = call i32 @fclose(ptr noundef %77)
  call void @llvm.lifetime.end.p0(i64 8, ptr %13) #9
  call void @llvm.lifetime.end.p0(i64 8, ptr %12) #9
  call void @llvm.lifetime.end.p0(i64 8, ptr %11) #9
  call void @llvm.lifetime.end.p0(i64 4, ptr %10) #9
  call void @llvm.lifetime.end.p0(i64 4, ptr %9) #9
  call void @llvm.lifetime.end.p0(i64 4, ptr %8) #9
  call void @llvm.lifetime.end.p0(i64 8, ptr %7) #9
  ret void
}