; Function Attrs: nounwind uwtable
define void @printAllIntVectorsStabil(ptr noundef readonly captures(none) %0, ptr noundef readonly captures(none) %1, ptr noundef readonly captures(none) %2) local_unnamed_addr #5 {
  %4 = tail call noalias ptr @fopen(ptr noundef %2, ptr noundef nonnull @.str.2)
  %5 = getelementptr i8, ptr %0, i64 4
  %.val33 = load i32, ptr %5, align 4, !tbaa !28
  %6 = icmp sgt i32 %.val33, 0
  br i1 %6, label %.lr.ph35, label %.critedge

.lr.ph35:                                         ; preds = %3
  %7 = getelementptr i8, ptr %0, i64 8
  %8 = getelementptr i8, ptr %1, i64 48
  br label %9

9:                                                ; preds = %.lr.ph35, %.critedge2
  %indvars.iv37 = phi i64 [ 0, %.lr.ph35 ], [ %indvars.iv.next38, %.critedge2 ]
  %.val26 = load ptr, ptr %7, align 8, !tbaa !37
  %10 = getelementptr inbounds nuw ptr, ptr %.val26, i64 %indvars.iv37
  %11 = load ptr, ptr %10, align 8, !tbaa !38
  %12 = trunc nuw nsw i64 %indvars.iv37 to i32
  %13 = tail call i32 (ptr, ...) @printf(ptr noundef nonnull dereferenceable(1) @.str.8, i32 noundef %12)
  %14 = tail call i64 @fwrite(ptr nonnull @.str.3, i64 2, i64 1, ptr %4)
  %15 = getelementptr i8, ptr %11, i64 4
  %.val2831 = load i32, ptr %15, align 4, !tbaa !42
  %16 = icmp sgt i32 %.val2831, 0
  br i1 %16, label %.lr.ph, label %.critedge2

.lr.ph:                                           ; preds = %9
  %17 = getelementptr i8, ptr %11, i64 8
  br label %18

18:                                               ; preds = %.lr.ph, %36
  %indvars.iv = phi i64 [ 0, %.lr.ph ], [ %indvars.iv.next, %36 ]
  %.val29 = load ptr, ptr %17, align 8, !tbaa !9
  %19 = getelementptr inbounds nuw i32, ptr %.val29, i64 %indvars.iv
  %20 = load i32, ptr %19, align 4, !tbaa !50
  %.val30 = load ptr, ptr %8, align 8, !tbaa !75
  %21 = getelementptr i8, ptr %.val30, i64 8
  %.val30.val = load ptr, ptr %21, align 8, !tbaa !37
  %22 = sext i32 %20 to i64
  %23 = getelementptr inbounds ptr, ptr %.val30.val, i64 %22
  %24 = load ptr, ptr %23, align 8, !tbaa !38
  %25 = tail call ptr @Abc_ObjName(ptr noundef %24) #14
  %26 = tail call ptr @strstr(ptr noundef nonnull dereferenceable(1) %25, ptr noundef nonnull dereferenceable(1) @.str.9) #15
  %27 = tail call i32 (ptr, ...) @printf(ptr noundef nonnull dereferenceable(1) @.str.5, ptr noundef %26)
  %fputs = tail call i32 @fputs(ptr %26, ptr %4)
  %.val27 = load i32, ptr %15, align 4, !tbaa !42
  %28 = add nsw i32 %.val27, -1
  %29 = sext i32 %28 to i64
  %30 = icmp slt i64 %indvars.iv, %29
  br i1 %30, label %31, label %34

31:                                               ; preds = %18
  %32 = tail call i32 (ptr, ...) @printf(ptr noundef nonnull dereferenceable(1) @.str.6)
  %33 = tail call i64 @fwrite(ptr nonnull @.str.6, i64 4, i64 1, ptr %4)
  br label %36

34:                                               ; preds = %18
  %puts = tail call i32 @puts(ptr nonnull dereferenceable(1) @str)
  %35 = tail call i64 @fwrite(ptr nonnull @.str.7, i64 3, i64 1, ptr %4)
  br label %36

36:                                               ; preds = %31, %34
  %indvars.iv.next = add nuw nsw i64 %indvars.iv, 1
  %.val28 = load i32, ptr %15, align 4, !tbaa !42
  %37 = sext i32 %.val28 to i64
  %38 = icmp slt i64 %indvars.iv.next, %37
  br i1 %38, label %18, label %.critedge2, !llvm.loop !88

.critedge2:                                       ; preds = %36, %9
  %indvars.iv.next38 = add nuw nsw i64 %indvars.iv37, 1
  %.val = load i32, ptr %5, align 4, !tbaa !28
  %39 = sext i32 %.val to i64
  %40 = icmp slt i64 %indvars.iv.next38, %39
  br i1 %40, label %9, label %.critedge, !llvm.loop !89

.critedge:                                        ; preds = %.critedge2, %3
  %41 = tail call i32 @fclose(ptr noundef %4)
  ret void
}